; Function Attrs: mustprogress nounwind uwtable
define internal fastcc ptr @_ZN32pxrInternal_v0_24__pxrReserved__12_GLOBAL__N_129_FindMatchingOpeningDelimiterERKNSt7__cxx1112basic_stringIcSt11char_traitsIcESaIcEEEN9__gnu_cxx17__normal_iteratorIPKcS6_EE(ptr noundef nonnull align 8 dereferenceable(32) %0, ptr readonly %1) unnamed_addr #0 {
  %3 = alloca %"class.std::reverse_iterator", align 8
  %4 = alloca %"class.std::reverse_iterator", align 8
  call void @_ZNKSt7__cxx1112basic_stringIcSt11char_traitsIcESaIcEE4rendEv(ptr dead_on_unwind nonnull writable sret(%"class.std::reverse_iterator") align 8 %3, ptr noundef nonnull align 8 dereferenceable(32) %0) #7
  %.sroa.0.0.copyload.i2.i.i13 = load ptr, ptr %3, align 8
  %.not17 = icmp eq ptr %1, %.sroa.0.0.copyload.i2.i.i13
  br i1 %.not17, label %._crit_edge.thread, label %.lr.ph

.lr.ph:                                           ; preds = %2, %16
  %.015 = phi i64 [ %.1, %16 ], [ 1, %2 ]
  %.sroa.09.014 = phi ptr [ %5, %16 ], [ %1, %2 ]
  %5 = getelementptr inbounds i8, ptr %.sroa.09.014, i64 -1
  %6 = load i8, ptr %5, align 1
  switch i8 %6, label %16 [
    i8 91, label %7
    i8 93, label %7
  ]

7:                                                ; preds = %.lr.ph, %.lr.ph
  call void @_ZNKSt7__cxx1112basic_stringIcSt11char_traitsIcESaIcEE4rendEv(ptr dead_on_unwind nonnull writable sret(%"class.std::reverse_iterator") align 8 %4, ptr noundef nonnull align 8 dereferenceable(32) %0) #7
  %.sroa.0.0.copyload.i2.i.i8 = load ptr, ptr %4, align 8
  %.not = icmp eq ptr %5, %.sroa.0.0.copyload.i2.i.i8
  br i1 %.not, label %.critedge, label %8

8:                                                ; preds = %7
  %9 = getelementptr inbounds i8, ptr %.sroa.09.014, i64 -2
  %10 = load i8, ptr %9, align 1
  %11 = icmp eq i8 %10, 92
  br i1 %11, label %16, label %.critedge

.critedge:                                        ; preds = %7, %8
  %12 = load i8, ptr %5, align 1
  %13 = icmp eq i8 %12, 91
  %14 = select i1 %13, i64 -1, i64 1
  %15 = add i64 %14, %.015
  br label %16

16:                                               ; preds = %.lr.ph, %.critedge, %8
  %.1 = phi i64 [ %.015, %8 ], [ %15, %.critedge ], [ %.015, %.lr.ph ]
  call void @_ZNKSt7__cxx1112basic_stringIcSt11char_traitsIcESaIcEE4rendEv(ptr dead_on_unwind nonnull writable sret(%"class.std::reverse_iterator") align 8 %3, ptr noundef nonnull align 8 dereferenceable(32) %0) #7
  %.sroa.0.0.copyload.i2.i.i = load ptr, ptr %3, align 8
  %17 = icmp ne ptr %5, %.sroa.0.0.copyload.i2.i.i
  %18 = icmp ne i64 %.1, 0
  %19 = select i1 %17, i1 %18, i1 false
  br i1 %19, label %.lr.ph, label %._crit_edge, !llvm.loop !4

._crit_edge:                                      ; preds = %16
  %20 = icmp eq i64 %.1, 0
  br i1 %20, label %22, label %._crit_edge.thread

._crit_edge.thread:                               ; preds = %2, %._crit_edge
  %21 = call ptr @_ZNKSt7__cxx1112basic_stringIcSt11char_traitsIcESaIcEE3endEv(ptr noundef nonnull align 8 dereferenceable(32) %0) #7
  br label %22

22:                                               ; preds = %._crit_edge, %._crit_edge.thread
  %.sroa.06.0 = phi ptr [ %21, %._crit_edge.thread ], [ %5, %._crit_edge ]
  ret ptr %.sroa.06.0
}